; Function Attrs: nounwind uwtable
define hidden i32 @X509_PURPOSE_get_by_id(i32 noundef %0) local_unnamed_addr #0 {
  %2 = alloca %struct.x509_purpose_st, align 8
  %3 = alloca i64, align 8
  call void @llvm.lifetime.start.p0(i64 48, ptr nonnull %2) #10
  call void @llvm.lifetime.start.p0(i64 8, ptr nonnull %3) #10
  %4 = add i32 %0, -1
  %or.cond = icmp ult i32 %4, 9
  br i1 %or.cond, label %13, label %5

5:                                                ; preds = %1
  store i32 %0, ptr %2, align 8, !tbaa !25
  %6 = load ptr, ptr @xptable, align 8, !tbaa !27
  %.not = icmp eq ptr %6, null
  br i1 %.not, label %13, label %7

7:                                                ; preds = %5
  %8 = call i32 @sk_find(ptr noundef nonnull %6, ptr noundef nonnull %3, ptr noundef nonnull %2) #10
  %.not8 = icmp eq i32 %8, 0
  br i1 %.not8, label %13, label %9

9:                                                ; preds = %7
  %10 = load i64, ptr %3, align 8, !tbaa !29
  %11 = trunc i64 %10 to i32
  %12 = add i32 %11, 9
  br label %13

13:                                               ; preds = %1, %7, %5, %9
  %.0 = phi i32 [ %12, %9 ], [ -1, %5 ], [ -1, %7 ], [ %4, %1 ]
  call void @llvm.lifetime.end.p0(i64 8, ptr nonnull %3) #10
  call void @llvm.lifetime.end.p0(i64 48, ptr nonnull %2) #10
  ret i32 %.0
}